target datalayout = "e-m:e-p270:32:32-p271:32:32-p272:64:64-i64:64-i128:128-f80:128-n8:16:32:64-S128"
target triple = "x86_64-pc-linux-gnu"

@proto_register_pppoed.ett = internal global [3 x ptr] [ptr @ett_pppoed, ptr @ett_pppoed_tags, ptr @ett_pppoed_tag_vspec_dslf_access_loop_encaps], align 16
@.str.108 = private unnamed_addr constant [28 x i8] c"PPP-over-Ethernet Discovery\00", align 1
@.str.109 = private unnamed_addr constant [7 x i8] c"PPPoED\00", align 1
@.str.110 = private unnamed_addr constant [7 x i8] c"pppoed\00", align 1
@proto_pppoed = internal global i32 0, align 4
@pppoed_handle = internal global ptr null, align 8
@.str.111 = private unnamed_addr constant [22 x i8] c"show_tags_and_lengths\00", align 1
@.str.112 = private unnamed_addr constant [28 x i8] c"Show tag values and lengths\00", align 1
@.str.113 = private unnamed_addr constant [47 x i8] c"Show values of tags and lengths of data fields\00", align 1
@global_pppoe_show_tags_and_lengths = internal global i8 0, align 1

; Function Attrs: null_pointer_is_valid sspstrong uwtable
define hidden void @proto_register_pppoed() #0 {
  %1 = alloca ptr, align 8
  call void @llvm.lifetime.start.p0(i64 8, ptr %1) #4
  %2 = call i32 @proto_register_protocol(ptr noundef @.str.108, ptr noundef @.str.109, ptr noundef @.str.110)
  store i32 %2, ptr @proto_pppoed, align 4
  call void @proto_register_subtree_array(ptr noundef @proto_register_pppoed.ett, i32 noundef 3)
  %3 = load i32, ptr @proto_pppoed, align 4
  call void @proto_register_field_array(i32 noundef %3, ptr noundef @proto_register_pppoed.hf, i32 noundef 55)
  %4 = load i32, ptr @proto_pppoed, align 4
  %5 = call ptr @register_dissector(ptr noundef @.str.110, ptr noundef @dissect_pppoed, i32 noundef %4)
  store ptr %5, ptr @pppoed_handle, align 8
  %6 = load i32, ptr @proto_pppoed, align 4
  %7 = call ptr @prefs_register_protocol(i32 noundef %6, ptr noundef null)
  store ptr %7, ptr %1, align 8
  %8 = load ptr, ptr %1, align 8
  call void @prefs_register_bool_preference(ptr noundef %8, ptr noundef @.str.111, ptr noundef @.str.112, ptr noundef @.str.113, ptr noundef @global_pppoe_show_tags_and_lengths)
  call void @llvm.lifetime.end.p0(i64 8, ptr %1) #4
  ret void
}