; Function Attrs: null_pointer_is_valid sspstrong uwtable
define hidden void @proto_register_pppoed() local_unnamed_addr #0 {
  %1 = tail call i32 @proto_register_protocol(ptr noundef nonnull @.str.108, ptr noundef nonnull @.str.109, ptr noundef nonnull @.str.110)
  store i32 %1, ptr @proto_pppoed, align 4
  tail call void @proto_register_subtree_array(ptr noundef nonnull @proto_register_pppoed.ett, i32 noundef 3)
  %2 = load i32, ptr @proto_pppoed, align 4
  tail call void @proto_register_field_array(i32 noundef %2, ptr noundef nonnull @proto_register_pppoed.hf, i32 noundef 55)
  %3 = load i32, ptr @proto_pppoed, align 4
  %4 = tail call ptr @register_dissector(ptr noundef nonnull @.str.110, ptr noundef nonnull @dissect_pppoed, i32 noundef %3)
  store ptr %4, ptr @pppoed_handle, align 8
  %5 = load i32, ptr @proto_pppoed, align 4
  %6 = tail call ptr @prefs_register_protocol(i32 noundef %5, ptr noundef null)
  tail call void @prefs_register_bool_preference(ptr noundef %6, ptr noundef nonnull @.str.111, ptr noundef nonnull @.str.112, ptr noundef nonnull @.str.113, ptr noundef nonnull @global_pppoe_show_tags_and_lengths)
  ret void
}